; Function Attrs: nofree nounwind uwtable
define noalias noundef ptr @Vec_WrdZoneExtract(i32 noundef %0, ptr noundef readonly captures(none) %1, i32 noundef %2, i32 noundef %3) local_unnamed_addr #9 {
  %5 = getelementptr i8, ptr %1, i64 4
  %.val = load i32, ptr %5, align 4, !tbaa !60
  %6 = sdiv i32 %.val, %0
  %7 = sub nsw i32 %0, %2
  %8 = tail call noundef i32 @llvm.smin.i32(i32 %3, i32 %7)
  %9 = mul nsw i32 %6, %3
  %10 = tail call noalias dereferenceable_or_null(16) ptr @malloc(i64 noundef 16) #25
  %11 = add i32 %9, -1
  %or.cond.i.i = icmp ult i32 %11, 15
  %spec.store.select.i.i = select i1 %or.cond.i.i, i32 16, i32 %9
  store i32 %spec.store.select.i.i, ptr %10, align 8, !tbaa !56
  %.not.i.i = icmp eq i32 %spec.store.select.i.i, 0
  br i1 %.not.i.i, label %Vec_WrdStart.exit, label %12

12:                                               ; preds = %4
  %13 = sext i32 %spec.store.select.i.i to i64
  %14 = shl nsw i64 %13, 3
  %15 = tail call noalias ptr @malloc(i64 noundef %14) #25
  br label %Vec_WrdStart.exit

Vec_WrdStart.exit:                                ; preds = %4, %12
  %16 = phi ptr [ %15, %12 ], [ null, %4 ]
  %17 = getelementptr inbounds nuw i8, ptr %10, i64 4
  %18 = getelementptr inbounds nuw i8, ptr %10, i64 8
  store ptr %16, ptr %18, align 8, !tbaa !59
  store i32 %9, ptr %17, align 4, !tbaa !60
  %19 = sext i32 %9 to i64
  %20 = shl nsw i64 %19, 3
  tail call void @llvm.memset.p0.i64(ptr align 8 %16, i8 0, i64 %20, i1 false)
  %21 = icmp sgt i32 %6, 0
  %22 = icmp sgt i32 %8, 0
  %or.cond = and i1 %21, %22
  br i1 %or.cond, label %.preheader.lr.ph.split.us, label %._crit_edge27

.preheader.lr.ph.split.us:                        ; preds = %Vec_WrdStart.exit
  %23 = getelementptr i8, ptr %1, i64 8
  %.val23.us = load ptr, ptr %23, align 8, !tbaa !59
  %24 = sext i32 %3 to i64
  %25 = sext i32 %0 to i64
  %26 = sext i32 %2 to i64
  %wide.trip.count34 = zext nneg i32 %6 to i64
  %wide.trip.count = zext nneg i32 %8 to i64
  %invariant.gep36 = getelementptr i64, ptr %.val23.us, i64 %26
  br label %.preheader.us

.preheader.us:                                    ; preds = %._crit_edge.us, %.preheader.lr.ph.split.us
  %indvars.iv31 = phi i64 [ %indvars.iv.next32, %._crit_edge.us ], [ 0, %.preheader.lr.ph.split.us ]
  %27 = mul nsw i64 %indvars.iv31, %24
  %28 = mul nsw i64 %indvars.iv31, %25
  %gep37 = getelementptr i64, ptr %invariant.gep36, i64 %28
  %invariant.gep = getelementptr i64, ptr %16, i64 %27
  br label %29

29:                                               ; preds = %.preheader.us, %29
  %indvars.iv = phi i64 [ 0, %.preheader.us ], [ %indvars.iv.next, %29 ]
  %30 = getelementptr i64, ptr %gep37, i64 %indvars.iv
  %31 = load i64, ptr %30, align 8, !tbaa !62
  %gep = getelementptr i64, ptr %invariant.gep, i64 %indvars.iv
  store i64 %31, ptr %gep, align 8, !tbaa !62
  %indvars.iv.next = add nuw nsw i64 %indvars.iv, 1
  %exitcond.not = icmp eq i64 %indvars.iv.next, %wide.trip.count
  br i1 %exitcond.not, label %._crit_edge.us, label %29, !llvm.loop !71

._crit_edge.us:                                   ; preds = %29
  %indvars.iv.next32 = add nuw nsw i64 %indvars.iv31, 1
  %exitcond35.not = icmp eq i64 %indvars.iv.next32, %wide.trip.count34
  br i1 %exitcond35.not, label %._crit_edge27, label %.preheader.us, !llvm.loop !72

._crit_edge27:                                    ; preds = %._crit_edge.us, %Vec_WrdStart.exit
  ret ptr %10
}